target datalayout = "e-m:e-p270:32:32-p271:32:32-p272:64:64-i64:64-i128:128-f80:128-n8:16:32:64-S128"
target triple = "x86_64-pc-linux-gnu"

%struct.SlruCtlData = type { ptr, i16, i8, i32, ptr, [64 x i8] }
%struct.pg_atomic_uint64 = type { i64 }
%struct.pg_atomic_uint32 = type { i32 }
%struct.LWLock = type { i16, %struct.pg_atomic_uint32, %struct.proclist_head }
%struct.proclist_head = type { i32, i32 }
%struct.SlruSharedData = type { i32, ptr, ptr, ptr, ptr, ptr, ptr, ptr, ptr, ptr, i32, %struct.pg_atomic_uint64, i32 }
%union.LWLockPadded = type { %struct.LWLock, [112 x i8] }

@XactCtlData = internal global %struct.SlruCtlData zeroinitializer, align 8

; Function Attrs: nounwind uwtable
define internal void @WriteZeroPageXlogRec(i64 noundef %0) #0 {
  %2 = alloca i64, align 8
  store i64 %0, ptr %2, align 8
  call void @XLogBeginInsert()
  call void @XLogRegisterData(ptr noundef %2, i32 noundef 8)
  %3 = call i64 @XLogInsert(i8 noundef zeroext 3, i8 noundef zeroext 0)
  ret void
}

; Function Attrs: nounwind uwtable
define internal i32 @ZeroCLOGPage(i64 noundef %0, i1 noundef zeroext %1) #0 {
  %3 = alloca i64, align 8
  %4 = alloca i8, align 1
  %5 = alloca i32, align 4
  store i64 %0, ptr %3, align 8
  %6 = zext i1 %1 to i8
  store i8 %6, ptr %4, align 1
  call void @llvm.lifetime.start.p0(i64 4, ptr %5) #8
  %7 = load i64, ptr %3, align 8
  %8 = call i32 @SimpleLruZeroPage(ptr noundef @XactCtlData, i64 noundef %7)
  store i32 %8, ptr %5, align 4
  %9 = load i8, ptr %4, align 1, !range !6, !noundef !7
  %10 = trunc i8 %9 to i1
  br i1 %10, label %11, label %13

11:                                               ; preds = %2
  %12 = load i64, ptr %3, align 8
  call void @WriteZeroPageXlogRec(i64 noundef %12)
  br label %13

13:                                               ; preds = %11, %2
  %14 = load i32, ptr %5, align 4
  call void @llvm.lifetime.end.p0(i64 4, ptr %5) #8
  ret i32 %14
}

; Function Attrs: inlinehint nounwind uwtable
define internal ptr @SimpleLruGetBankLock(ptr noundef %0, i64 noundef %1) #2 {
  %3 = alloca ptr, align 8
  %4 = alloca i64, align 8
  %5 = alloca i32, align 4
  store ptr %0, ptr %3, align 8
  store i64 %1, ptr %4, align 8
  call void @llvm.lifetime.start.p0(i64 4, ptr %5) #8
  %6 = load i64, ptr %4, align 8
  %7 = load ptr, ptr %3, align 8
  %8 = getelementptr inbounds nuw %struct.SlruCtlData, ptr %7, i32 0, i32 1
  %9 = load i16, ptr %8, align 8
  %10 = zext i16 %9 to i64
  %11 = srem i64 %6, %10
  %12 = trunc i64 %11 to i32
  store i32 %12, ptr %5, align 4
  %13 = load ptr, ptr %3, align 8
  %14 = getelementptr inbounds nuw %struct.SlruCtlData, ptr %13, i32 0, i32 0
  %15 = load ptr, ptr %14, align 8
  %16 = getelementptr inbounds nuw %struct.SlruSharedData, ptr %15, i32 0, i32 7
  %17 = load ptr, ptr %16, align 8
  %18 = load i32, ptr %5, align 4
  %19 = sext i32 %18 to i64
  %20 = getelementptr inbounds %union.LWLockPadded, ptr %17, i64 %19
  call void @llvm.lifetime.end.p0(i64 4, ptr %5) #8
  ret ptr %20
}

; Function Attrs: nounwind uwtable
define dso_local void @BootStrapCLOG() #0 {
  %1 = alloca i32, align 4
  %2 = alloca ptr, align 8
  call void @llvm.lifetime.start.p0(i64 4, ptr %1) #8
  call void @llvm.lifetime.start.p0(i64 8, ptr %2) #8
  %3 = call ptr @SimpleLruGetBankLock(ptr noundef @XactCtlData, i64 noundef 0)
  store ptr %3, ptr %2, align 8
  %4 = load ptr, ptr %2, align 8
  %5 = call zeroext i1 @LWLockAcquire(ptr noundef %4, i32 noundef 0)
  %6 = call i32 @ZeroCLOGPage(i64 noundef 0, i1 noundef zeroext false)
  store i32 %6, ptr %1, align 4
  %7 = load i32, ptr %1, align 4
  call void @SimpleLruWritePage(ptr noundef @XactCtlData, i32 noundef %7)
  %8 = load ptr, ptr %2, align 8
  call void @LWLockRelease(ptr noundef %8)
  call void @llvm.lifetime.end.p0(i64 8, ptr %2) #8
  call void @llvm.lifetime.end.p0(i64 4, ptr %1) #8
  ret void
}