; Function Attrs: nounwind uwtable
define dso_local void @BootStrapCLOG() local_unnamed_addr #0 {
  %1 = load ptr, ptr @XactCtlData, align 8
  %2 = getelementptr inbounds nuw i8, ptr %1, i64 56
  %3 = load ptr, ptr %2, align 8
  %4 = tail call zeroext i1 @LWLockAcquire(ptr noundef %3, i32 noundef 0) #9
  %5 = tail call i32 @SimpleLruZeroPage(ptr noundef nonnull @XactCtlData, i64 noundef 0) #9
  tail call void @SimpleLruWritePage(ptr noundef nonnull @XactCtlData, i32 noundef %5) #9
  tail call void @LWLockRelease(ptr noundef %3) #9
  ret void
}